; Function Attrs: mustprogress uwtable
define noundef zeroext i1 @_ZN4toku12range_buffer8iterator7currentEPNS1_6recordE(ptr noundef nonnull align 8 captures(none) dereferenceable(48) %0, ptr noundef %1) local_unnamed_addr #1 align 2 {
  %3 = getelementptr inbounds nuw i8, ptr %0, i64 24
  %4 = load i64, ptr %3, align 8, !tbaa !36
  %5 = getelementptr inbounds nuw i8, ptr %0, i64 32
  %6 = load i64, ptr %5, align 8, !tbaa !37
  %7 = icmp ult i64 %4, %6
  br i1 %7, label %8, label %57

8:                                                ; preds = %2
  %9 = getelementptr inbounds nuw i8, ptr %0, i64 16
  %10 = load ptr, ptr %9, align 8, !tbaa !34
  %11 = getelementptr inbounds nuw i8, ptr %10, i64 %4
  tail call void @llvm.memcpy.p0.p0.i64(ptr noundef nonnull align 8 dereferenceable(80) %1, ptr noundef nonnull align 1 dereferenceable(10) %11, i64 10, i1 false)
  %12 = load i8, ptr %1, align 2, !tbaa !4, !range !10, !noundef !11
  %13 = trunc nuw i8 %12 to i1
  %14 = getelementptr inbounds nuw i8, ptr %1, i64 1
  %15 = load i8, ptr %14, align 1, !range !10
  %16 = trunc nuw i8 %15 to i1
  %17 = select i1 %13, i1 true, i1 %16
  br i1 %17, label %28, label %18

18:                                               ; preds = %8
  %19 = getelementptr inbounds nuw i8, ptr %1, i64 16
  %20 = getelementptr inbounds nuw i8, ptr %11, i64 10
  %21 = getelementptr inbounds nuw i8, ptr %1, i64 4
  %22 = load i16, ptr %21, align 4, !tbaa !28
  %23 = zext i16 %22 to i64
  %24 = tail call noundef ptr @_Z13toku_fill_dbtP10__toku_dbtPKvm(ptr noundef nonnull %19, ptr noundef nonnull %20, i64 noundef %23)
  %25 = load i16, ptr %21, align 4, !tbaa !28
  %26 = zext i16 %25 to i64
  %27 = add nuw nsw i64 %26, 10
  br label %28

28:                                               ; preds = %18, %8
  %.0.i = phi i64 [ 10, %8 ], [ %27, %18 ]
  %29 = getelementptr inbounds nuw i8, ptr %1, i64 3
  %30 = load i8, ptr %29, align 1, !tbaa !12, !range !10, !noundef !11
  %31 = trunc nuw i8 %30 to i1
  %32 = getelementptr inbounds nuw i8, ptr %1, i64 2
  %33 = load i8, ptr %32, align 2, !range !10
  %34 = trunc nuw i8 %33 to i1
  %35 = select i1 %31, i1 true, i1 %34
  br i1 %35, label %_ZN4toku12range_buffer8iterator6record11deserializeEPKc.exit, label %36

36:                                               ; preds = %28
  %37 = getelementptr inbounds nuw i8, ptr %1, i64 6
  %38 = load i16, ptr %37, align 2, !tbaa !29
  %39 = icmp eq i16 %38, 0
  %40 = getelementptr inbounds nuw i8, ptr %1, i64 48
  br i1 %39, label %41, label %44

41:                                               ; preds = %36
  %42 = getelementptr inbounds nuw i8, ptr %1, i64 16
  %43 = tail call noundef ptr @_Z16toku_copyref_dbtP10__toku_dbtS_(ptr noundef nonnull %40, ptr noundef nonnull byval(%struct.__toku_dbt) align 8 %42)
  br label %_ZN4toku12range_buffer8iterator6record11deserializeEPKc.exit

44:                                               ; preds = %36
  %45 = getelementptr inbounds nuw i8, ptr %11, i64 %.0.i
  %46 = zext i16 %38 to i64
  %47 = tail call noundef ptr @_Z13toku_fill_dbtP10__toku_dbtPKvm(ptr noundef nonnull %40, ptr noundef nonnull %45, i64 noundef %46)
  br label %_ZN4toku12range_buffer8iterator6record11deserializeEPKc.exit

_ZN4toku12range_buffer8iterator6record11deserializeEPKc.exit: ; preds = %28, %41, %44
  %48 = getelementptr inbounds nuw i8, ptr %1, i64 4
  %49 = load i16, ptr %48, align 4, !tbaa !28
  %50 = zext i16 %49 to i64
  %51 = add nuw nsw i64 %50, 10
  %52 = getelementptr inbounds nuw i8, ptr %1, i64 6
  %53 = load i16, ptr %52, align 2, !tbaa !29
  %54 = zext i16 %53 to i64
  %55 = add nuw nsw i64 %51, %54
  %56 = getelementptr inbounds nuw i8, ptr %0, i64 40
  store i64 %55, ptr %56, align 8, !tbaa !38
  br label %57

57:                                               ; preds = %2, %_ZN4toku12range_buffer8iterator6record11deserializeEPKc.exit
  ret i1 %7
}